; Function Attrs: mustprogress uwtable
define hidden noundef zeroext i1 @_ZN3euf8ackerman9enable_ccEP3appS2_(ptr nocapture noundef nonnull readonly align 8 dereferenceable(68) %this, ptr noundef %a, ptr noundef %b) local_unnamed_addr #3 align 2 {
entry:
  %0 = load ptr, ptr %this, align 8
  %call = tail call noundef zeroext i1 @_ZNK3euf6solver22enable_ackerman_axiomsEP4expr(ptr noundef nonnull align 8 dereferenceable(9136) %0, ptr noundef %a)
  br i1 %call, label %if.end, label %return

if.end:                                           ; preds = %entry
  %1 = load ptr, ptr %this, align 8
  %call3 = tail call noundef zeroext i1 @_ZNK3euf6solver22enable_ackerman_axiomsEP4expr(ptr noundef nonnull align 8 dereferenceable(9136) %1, ptr noundef %b)
  br i1 %call3, label %if.end5, label %return

if.end5:                                          ; preds = %if.end
  %m_num_args.i = getelementptr inbounds i8, ptr %a, i64 24
  %2 = load i32, ptr %m_num_args.i, align 8
  %idx.ext.i = zext i32 %2 to i64
  %add.ptr.i.idx = shl nuw nsw i64 %idx.ext.i, 3
  %3 = getelementptr i8, ptr %a, i64 %add.ptr.i.idx
  %add.ptr.i.ptr = getelementptr i8, ptr %3, i64 32
  %cmp.not16 = icmp eq i32 %2, 0
  br i1 %cmp.not16, label %for.end, label %for.body.preheader

for.body.preheader:                               ; preds = %if.end5
  %m_args.i.ptr = getelementptr inbounds i8, ptr %a, i64 32
  br label %for.body

for.cond:                                         ; preds = %for.body
  %incdec.ptr = getelementptr inbounds i8, ptr %__begin1.017, i64 8
  %cmp.not = icmp eq ptr %incdec.ptr, %add.ptr.i.ptr
  br i1 %cmp.not, label %for.end, label %for.body

for.body:                                         ; preds = %for.body.preheader, %for.cond
  %__begin1.017 = phi ptr [ %incdec.ptr, %for.cond ], [ %m_args.i.ptr, %for.body.preheader ]
  %4 = load ptr, ptr %__begin1.017, align 8
  %5 = load ptr, ptr %this, align 8
  %call9 = tail call noundef zeroext i1 @_ZNK3euf6solver22enable_ackerman_axiomsEP4expr(ptr noundef nonnull align 8 dereferenceable(9136) %5, ptr noundef %4)
  br i1 %call9, label %for.cond, label %return

for.end:                                          ; preds = %for.cond, %if.end5
  %m_num_args.i12 = getelementptr inbounds i8, ptr %b, i64 24
  %6 = load i32, ptr %m_num_args.i12, align 8
  %idx.ext.i13 = zext i32 %6 to i64
  %add.ptr.i14.idx = shl nuw nsw i64 %idx.ext.i13, 3
  %7 = getelementptr i8, ptr %b, i64 %add.ptr.i14.idx
  %add.ptr.i14.ptr = getelementptr i8, ptr %7, i64 32
  %cmp18.not18 = icmp eq i32 %6, 0
  br i1 %cmp18.not18, label %return, label %for.body19.preheader

for.body19.preheader:                             ; preds = %for.end
  %m_args.i10.ptr = getelementptr inbounds i8, ptr %b, i64 32
  br label %for.body19

for.body19:                                       ; preds = %for.body19, %for.body19.preheader
  %__begin113.019 = phi ptr [ %m_args.i10.ptr, %for.body19.preheader ], [ %incdec.ptr26, %for.body19 ]
  %8 = load ptr, ptr %__begin113.019, align 8
  %9 = load ptr, ptr %this, align 8
  %call22 = tail call noundef zeroext i1 @_ZNK3euf6solver22enable_ackerman_axiomsEP4expr(ptr noundef nonnull align 8 dereferenceable(9136) %9, ptr noundef %8)
  %incdec.ptr26 = getelementptr inbounds i8, ptr %__begin113.019, i64 8
  %cmp18.not = icmp ne ptr %incdec.ptr26, %add.ptr.i14.ptr
  %or.cond.not = select i1 %call22, i1 %cmp18.not, i1 false
  br i1 %or.cond.not, label %for.body19, label %return

return:                                           ; preds = %for.body, %for.body19, %for.end, %if.end, %entry
  %retval.0 = phi i1 [ false, %entry ], [ false, %if.end ], [ true, %for.end ], [ %call22, %for.body19 ], [ false, %for.body ]
  ret i1 %retval.0
}